target datalayout = "e-m:e-p270:32:32-p271:32:32-p272:64:64-i64:64-i128:128-f80:128-n8:16:32:64-S128"
target triple = "x86_64-pc-linux-gnu"

%"class.clang::RISCV::Policy" = type { i32, i32 }
%"class.llvm::SmallVectorBase" = type { ptr, i32, i32 }
%"class.llvm::SmallVector.54" = type { %"class.llvm::SmallVectorImpl.55", %"struct.llvm::SmallVectorStorage.58" }
%"class.llvm::SmallVectorImpl.55" = type { %"class.llvm::SmallVectorTemplateBase.56" }
%"class.llvm::SmallVectorTemplateBase.56" = type { %"class.llvm::SmallVectorTemplateCommon.57" }
%"class.llvm::SmallVectorTemplateCommon.57" = type { %"class.llvm::SmallVectorBase" }
%"struct.llvm::SmallVectorStorage.58" = type { [48 x i8] }
%"class.std::initializer_list" = type { ptr, i64 }

; Function Attrs: mustprogress nounwind uwtable
define linkonce_odr hidden noundef ptr @_ZNK4llvm25SmallVectorTemplateCommonIN5clang5RISCV6PolicyEvE10getFirstElEv(ptr noundef nonnull align 8 dereferenceable(16) %0) #0 comdat align 2 {
  %2 = alloca ptr, align 8
  store ptr %0, ptr %2, align 8
  %3 = load ptr, ptr %2, align 8
  %4 = getelementptr inbounds i8, ptr %3, i64 16
  ret ptr %4
}

; Function Attrs: mustprogress nounwind uwtable
define linkonce_odr hidden noundef i64 @_ZNKSt16initializer_listIN5clang5RISCV6PolicyEE4sizeEv(ptr noundef nonnull align 8 dereferenceable(16) %0) #0 comdat align 2 {
  %2 = alloca ptr, align 8
  store ptr %0, ptr %2, align 8
  %3 = load ptr, ptr %2, align 8
  %4 = getelementptr inbounds nuw %"class.std::initializer_list", ptr %3, i32 0, i32 1
  %5 = load i64, ptr %4, align 8
  ret i64 %5
}

; Function Attrs: mustprogress nounwind uwtable
define linkonce_odr hidden void @_ZN4llvm25SmallVectorTemplateCommonIN5clang5RISCV6PolicyEvEC2Em(ptr noundef nonnull align 8 dereferenceable(16) %0, i64 noundef %1) unnamed_addr #0 comdat align 2 {
  %3 = alloca ptr, align 8
  %4 = alloca i64, align 8
  store ptr %0, ptr %3, align 8
  store i64 %1, ptr %4, align 8
  %5 = load ptr, ptr %3, align 8
  %6 = call noundef ptr @_ZNK4llvm25SmallVectorTemplateCommonIN5clang5RISCV6PolicyEvE10getFirstElEv(ptr noundef nonnull align 8 dereferenceable(16) %5)
  %7 = load i64, ptr %4, align 8
  call void @_ZN4llvm15SmallVectorBaseIjEC2EPvm(ptr noundef nonnull align 8 dereferenceable(16) %5, ptr noundef %6, i64 noundef %7)
  ret void
}

; Function Attrs: mustprogress nounwind uwtable
define linkonce_odr hidden noundef ptr @_ZNKSt16initializer_listIN5clang5RISCV6PolicyEE3endEv(ptr noundef nonnull align 8 dereferenceable(16) %0) #0 comdat align 2 {
  %2 = alloca ptr, align 8
  store ptr %0, ptr %2, align 8
  %3 = load ptr, ptr %2, align 8
  %4 = call noundef ptr @_ZNKSt16initializer_listIN5clang5RISCV6PolicyEE5beginEv(ptr noundef nonnull align 8 dereferenceable(16) %3) #11
  %5 = call noundef i64 @_ZNKSt16initializer_listIN5clang5RISCV6PolicyEE4sizeEv(ptr noundef nonnull align 8 dereferenceable(16) %3) #11
  %6 = getelementptr inbounds %"class.clang::RISCV::Policy", ptr %4, i64 %5
  ret ptr %6
}

; Function Attrs: mustprogress nounwind uwtable
define linkonce_odr hidden noundef ptr @_ZNKSt16initializer_listIN5clang5RISCV6PolicyEE5beginEv(ptr noundef nonnull align 8 dereferenceable(16) %0) #0 comdat align 2 {
  %2 = alloca ptr, align 8
  store ptr %0, ptr %2, align 8
  %3 = load ptr, ptr %2, align 8
  %4 = getelementptr inbounds nuw %"class.std::initializer_list", ptr %3, i32 0, i32 0
  %5 = load ptr, ptr %4, align 8
  ret ptr %5
}

; Function Attrs: mustprogress nounwind uwtable
define linkonce_odr hidden void @_ZN4llvm23SmallVectorTemplateBaseIN5clang5RISCV6PolicyELb1EEC2Em(ptr noundef nonnull align 8 dereferenceable(16) %0, i64 noundef %1) unnamed_addr #0 comdat align 2 {
  %3 = alloca ptr, align 8
  %4 = alloca i64, align 8
  store ptr %0, ptr %3, align 8
  store i64 %1, ptr %4, align 8
  %5 = load ptr, ptr %3, align 8
  %6 = load i64, ptr %4, align 8
  call void @_ZN4llvm25SmallVectorTemplateCommonIN5clang5RISCV6PolicyEvEC2Em(ptr noundef nonnull align 8 dereferenceable(16) %5, i64 noundef %6)
  ret void
}

; Function Attrs: mustprogress nounwind uwtable
define linkonce_odr hidden void @_ZN4llvm15SmallVectorImplIN5clang5RISCV6PolicyEE6appendESt16initializer_listIS3_E(ptr noundef nonnull align 8 dereferenceable(16) %0, ptr %1, i64 %2) #0 comdat align 2 {
  %4 = alloca %"class.std::initializer_list", align 8
  %5 = alloca ptr, align 8
  %6 = getelementptr inbounds nuw { ptr, i64 }, ptr %4, i32 0, i32 0
  store ptr %1, ptr %6, align 8
  %7 = getelementptr inbounds nuw { ptr, i64 }, ptr %4, i32 0, i32 1
  store i64 %2, ptr %7, align 8
  store ptr %0, ptr %5, align 8
  %8 = load ptr, ptr %5, align 8
  %9 = call noundef ptr @_ZNKSt16initializer_listIN5clang5RISCV6PolicyEE5beginEv(ptr noundef nonnull align 8 dereferenceable(16) %4) #11
  %10 = call noundef ptr @_ZNKSt16initializer_listIN5clang5RISCV6PolicyEE3endEv(ptr noundef nonnull align 8 dereferenceable(16) %4) #11
  call void @_ZN4llvm15SmallVectorImplIN5clang5RISCV6PolicyEE6appendIPKS3_vEEvT_S8_(ptr noundef nonnull align 8 dereferenceable(16) %8, ptr noundef %9, ptr noundef %10)
  ret void
}

; Function Attrs: mustprogress nounwind uwtable
define linkonce_odr hidden void @_ZN4llvm15SmallVectorImplIN5clang5RISCV6PolicyEEC2Ej(ptr noundef nonnull align 8 dereferenceable(16) %0, i32 noundef %1) unnamed_addr #0 comdat align 2 {
  %3 = alloca ptr, align 8
  %4 = alloca i32, align 4
  store ptr %0, ptr %3, align 8
  store i32 %1, ptr %4, align 4
  %5 = load ptr, ptr %3, align 8
  %6 = load i32, ptr %4, align 4
  %7 = zext i32 %6 to i64
  call void @_ZN4llvm23SmallVectorTemplateBaseIN5clang5RISCV6PolicyELb1EEC2Em(ptr noundef nonnull align 8 dereferenceable(16) %5, i64 noundef %7)
  ret void
}

; Function Attrs: mustprogress nounwind uwtable
define linkonce_odr hidden void @_ZN4llvm11SmallVectorIN5clang5RISCV6PolicyELj6EEC2ESt16initializer_listIS3_E(ptr noundef nonnull align 8 dereferenceable(64) %0, ptr %1, i64 %2) unnamed_addr #0 comdat align 2 {
  %4 = alloca %"class.std::initializer_list", align 8
  %5 = alloca ptr, align 8
  %6 = alloca %"class.std::initializer_list", align 8
  %7 = getelementptr inbounds nuw { ptr, i64 }, ptr %4, i32 0, i32 0
  store ptr %1, ptr %7, align 8
  %8 = getelementptr inbounds nuw { ptr, i64 }, ptr %4, i32 0, i32 1
  store i64 %2, ptr %8, align 8
  store ptr %0, ptr %5, align 8
  %9 = load ptr, ptr %5, align 8
  call void @_ZN4llvm15SmallVectorImplIN5clang5RISCV6PolicyEEC2Ej(ptr noundef nonnull align 8 dereferenceable(16) %9, i32 noundef 6)
  call void @llvm.memcpy.p0.p0.i64(ptr align 8 %6, ptr align 8 %4, i64 16, i1 false)
  %10 = getelementptr inbounds nuw { ptr, i64 }, ptr %6, i32 0, i32 0
  %11 = load ptr, ptr %10, align 8
  %12 = getelementptr inbounds nuw { ptr, i64 }, ptr %6, i32 0, i32 1
  %13 = load i64, ptr %12, align 8
  call void @_ZN4llvm15SmallVectorImplIN5clang5RISCV6PolicyEE6appendESt16initializer_listIS3_E(ptr noundef nonnull align 8 dereferenceable(16) %9, ptr %11, i64 %13)
  ret void
}

; Function Attrs: mustprogress nounwind uwtable
define linkonce_odr hidden void @_ZN5clang5RISCV6PolicyC2ENS1_10PolicyTypeES2_(ptr noundef nonnull align 4 dereferenceable(8) %0, i32 noundef %1, i32 noundef %2) unnamed_addr #0 comdat align 2 {
  %4 = alloca ptr, align 8
  %5 = alloca i32, align 4
  %6 = alloca i32, align 4
  store ptr %0, ptr %4, align 8
  store i32 %1, ptr %5, align 4
  store i32 %2, ptr %6, align 4
  %7 = load ptr, ptr %4, align 8
  %8 = getelementptr inbounds nuw %"class.clang::RISCV::Policy", ptr %7, i32 0, i32 0
  %9 = load i32, ptr %5, align 4
  store i32 %9, ptr %8, align 4
  %10 = getelementptr inbounds nuw %"class.clang::RISCV::Policy", ptr %7, i32 0, i32 1
  %11 = load i32, ptr %6, align 4
  store i32 %11, ptr %10, align 4
  ret void
}

; Function Attrs: mustprogress nounwind uwtable
define dso_local void @_ZN5clang5RISCV12RVVIntrinsic26getSupportedMaskedPoliciesEbb(ptr dead_on_unwind noalias writable sret(%"class.llvm::SmallVector.54") align 8 %0, i1 noundef zeroext %1, i1 noundef zeroext %2) #0 align 2 {
  %4 = alloca ptr, align 8
  %5 = alloca i8, align 1
  %6 = alloca i8, align 1
  %7 = alloca %"class.std::initializer_list", align 8
  %8 = alloca [3 x %"class.clang::RISCV::Policy"], align 4
  %9 = alloca %"class.std::initializer_list", align 8
  %10 = alloca [1 x %"class.clang::RISCV::Policy"], align 4
  %11 = alloca %"class.std::initializer_list", align 8
  %12 = alloca [1 x %"class.clang::RISCV::Policy"], align 4
  store ptr %0, ptr %4, align 8
  %13 = zext i1 %1 to i8
  store i8 %13, ptr %5, align 1
  %14 = zext i1 %2 to i8
  store i8 %14, ptr %6, align 1
  %15 = load i8, ptr %5, align 1
  %16 = trunc i8 %15 to i1
  br i1 %16, label %17, label %29

17:                                               ; preds = %3
  %18 = load i8, ptr %6, align 1
  %19 = trunc i8 %18 to i1
  br i1 %19, label %20, label %29

20:                                               ; preds = %17
  call void @_ZN5clang5RISCV6PolicyC2ENS1_10PolicyTypeES2_(ptr noundef nonnull align 4 dereferenceable(8) %8, i32 noundef 0, i32 noundef 1)
  %21 = getelementptr inbounds %"class.clang::RISCV::Policy", ptr %8, i64 1
  call void @_ZN5clang5RISCV6PolicyC2ENS1_10PolicyTypeES2_(ptr noundef nonnull align 4 dereferenceable(8) %21, i32 noundef 0, i32 noundef 0)
  %22 = getelementptr inbounds %"class.clang::RISCV::Policy", ptr %8, i64 2
  call void @_ZN5clang5RISCV6PolicyC2ENS1_10PolicyTypeES2_(ptr noundef nonnull align 4 dereferenceable(8) %22, i32 noundef 1, i32 noundef 0)
  %23 = getelementptr inbounds nuw %"class.std::initializer_list", ptr %7, i32 0, i32 0
  store ptr %8, ptr %23, align 8
  %24 = getelementptr inbounds nuw %"class.std::initializer_list", ptr %7, i32 0, i32 1
  store i64 3, ptr %24, align 8
  %25 = getelementptr inbounds nuw { ptr, i64 }, ptr %7, i32 0, i32 0
  %26 = load ptr, ptr %25, align 8
  %27 = getelementptr inbounds nuw { ptr, i64 }, ptr %7, i32 0, i32 1
  %28 = load i64, ptr %27, align 8
  call void @_ZN4llvm11SmallVectorIN5clang5RISCV6PolicyELj6EEC2ESt16initializer_listIS3_E(ptr noundef nonnull align 8 dereferenceable(64) %0, ptr %26, i64 %28)
  br label %56

29:                                               ; preds = %17, %3
  %30 = load i8, ptr %5, align 1
  %31 = trunc i8 %30 to i1
  br i1 %31, label %32, label %42

32:                                               ; preds = %29
  %33 = load i8, ptr %6, align 1
  %34 = trunc i8 %33 to i1
  br i1 %34, label %42, label %35

35:                                               ; preds = %32
  call void @_ZN5clang5RISCV6PolicyC2ENS1_10PolicyTypeES2_(ptr noundef nonnull align 4 dereferenceable(8) %10, i32 noundef 0, i32 noundef 1)
  %36 = getelementptr inbounds nuw %"class.std::initializer_list", ptr %9, i32 0, i32 0
  store ptr %10, ptr %36, align 8
  %37 = getelementptr inbounds nuw %"class.std::initializer_list", ptr %9, i32 0, i32 1
  store i64 1, ptr %37, align 8
  %38 = getelementptr inbounds nuw { ptr, i64 }, ptr %9, i32 0, i32 0
  %39 = load ptr, ptr %38, align 8
  %40 = getelementptr inbounds nuw { ptr, i64 }, ptr %9, i32 0, i32 1
  %41 = load i64, ptr %40, align 8
  call void @_ZN4llvm11SmallVectorIN5clang5RISCV6PolicyELj6EEC2ESt16initializer_listIS3_E(ptr noundef nonnull align 8 dereferenceable(64) %0, ptr %39, i64 %41)
  br label %56

42:                                               ; preds = %32, %29
  %43 = load i8, ptr %5, align 1
  %44 = trunc i8 %43 to i1
  br i1 %44, label %55, label %45

45:                                               ; preds = %42
  %46 = load i8, ptr %6, align 1
  %47 = trunc i8 %46 to i1
  br i1 %47, label %48, label %55

48:                                               ; preds = %45
  call void @_ZN5clang5RISCV6PolicyC2ENS1_10PolicyTypeES2_(ptr noundef nonnull align 4 dereferenceable(8) %12, i32 noundef 1, i32 noundef 0)
  %49 = getelementptr inbounds nuw %"class.std::initializer_list", ptr %11, i32 0, i32 0
  store ptr %12, ptr %49, align 8
  %50 = getelementptr inbounds nuw %"class.std::initializer_list", ptr %11, i32 0, i32 1
  store i64 1, ptr %50, align 8
  %51 = getelementptr inbounds nuw { ptr, i64 }, ptr %11, i32 0, i32 0
  %52 = load ptr, ptr %51, align 8
  %53 = getelementptr inbounds nuw { ptr, i64 }, ptr %11, i32 0, i32 1
  %54 = load i64, ptr %53, align 8
  call void @_ZN4llvm11SmallVectorIN5clang5RISCV6PolicyELj6EEC2ESt16initializer_listIS3_E(ptr noundef nonnull align 8 dereferenceable(64) %0, ptr %52, i64 %54)
  br label %56

55:                                               ; preds = %45, %42
  unreachable

56:                                               ; preds = %48, %35, %20
  ret void
}