; Function Attrs: mustprogress nounwind uwtable
define dso_local void @_ZN5clang5RISCV12RVVIntrinsic26getSupportedMaskedPoliciesEbb(ptr dead_on_unwind noalias writable sret(%"class.llvm::SmallVector.54") align 8 %0, i1 noundef zeroext %1, i1 noundef zeroext %2) local_unnamed_addr #1 align 2 {
  %4 = alloca [3 x %"class.clang::RISCV::Policy"], align 4
  %5 = alloca [1 x %"class.clang::RISCV::Policy"], align 4
  %6 = alloca [1 x %"class.clang::RISCV::Policy"], align 4
  %brmerge.not = and i1 %1, %2
  br i1 %brmerge.not, label %7, label %15

7:                                                ; preds = %3
  store i32 0, ptr %4, align 4
  %8 = getelementptr inbounds nuw i8, ptr %4, i64 4
  store i32 1, ptr %8, align 4
  %9 = getelementptr inbounds i8, ptr %4, i64 8
  store i32 0, ptr %9, align 4
  %10 = getelementptr inbounds i8, ptr %4, i64 12
  store i32 0, ptr %10, align 4
  %11 = getelementptr inbounds i8, ptr %4, i64 16
  store i32 1, ptr %11, align 4
  %12 = getelementptr inbounds i8, ptr %4, i64 20
  store i32 0, ptr %12, align 4
  %13 = getelementptr inbounds i8, ptr %0, i64 16
  tail call void @_ZN4llvm15SmallVectorBaseIjEC2EPvm(ptr noundef nonnull align 8 dereferenceable(16) %0, ptr noundef nonnull %13, i64 noundef 6) #20
  %14 = getelementptr inbounds i8, ptr %4, i64 24
  call void @_ZN4llvm15SmallVectorImplIN5clang5RISCV6PolicyEE6appendIPKS3_vEEvT_S8_(ptr noundef nonnull align 8 dereferenceable(16) %0, ptr noundef nonnull %4, ptr noundef nonnull %14)
  br label %24

15:                                               ; preds = %3
  %.not = xor i1 %1, true
  %brmerge12 = or i1 %2, %.not
  br i1 %brmerge12, label %20, label %16

16:                                               ; preds = %15
  store i32 0, ptr %5, align 4
  %17 = getelementptr inbounds nuw i8, ptr %5, i64 4
  store i32 1, ptr %17, align 4
  %18 = getelementptr inbounds i8, ptr %0, i64 16
  tail call void @_ZN4llvm15SmallVectorBaseIjEC2EPvm(ptr noundef nonnull align 8 dereferenceable(16) %0, ptr noundef nonnull %18, i64 noundef 6) #20
  %19 = getelementptr inbounds i8, ptr %5, i64 8
  call void @_ZN4llvm15SmallVectorImplIN5clang5RISCV6PolicyEE6appendIPKS3_vEEvT_S8_(ptr noundef nonnull align 8 dereferenceable(16) %0, ptr noundef nonnull %5, ptr noundef nonnull %19)
  br label %24

20:                                               ; preds = %15
  tail call void @llvm.assume(i1 %2)
  store i32 1, ptr %6, align 4
  %21 = getelementptr inbounds nuw i8, ptr %6, i64 4
  store i32 0, ptr %21, align 4
  %22 = getelementptr inbounds i8, ptr %0, i64 16
  tail call void @_ZN4llvm15SmallVectorBaseIjEC2EPvm(ptr noundef nonnull align 8 dereferenceable(16) %0, ptr noundef nonnull %22, i64 noundef 6) #20
  %23 = getelementptr inbounds i8, ptr %6, i64 8
  call void @_ZN4llvm15SmallVectorImplIN5clang5RISCV6PolicyEE6appendIPKS3_vEEvT_S8_(ptr noundef nonnull align 8 dereferenceable(16) %0, ptr noundef nonnull %6, ptr noundef nonnull %23)
  br label %24

24:                                               ; preds = %20, %16, %7
  ret void
}